target datalayout = "e-m:e-p270:32:32-p271:32:32-p272:64:64-i64:64-i128:128-f80:128-n8:16:32:64-S128"
target triple = "x86_64-pc-linux-gnu"

%struct.FT_ListRec_ = type { ptr, ptr }
%struct.FT_CharMapRec_ = type { ptr, i32, i16, i16 }
%struct.T1_FaceRec_ = type { %struct.FT_FaceRec_, %struct.T1_FontRec_, ptr, ptr, ptr, [2 x %struct.FT_CharMapRec_], [2 x ptr], ptr, i32, i32, i32, ptr, ptr }
%struct.FT_FaceRec_ = type { i64, i64, i64, i64, i64, ptr, ptr, i32, ptr, i32, ptr, %struct.FT_Generic_, %struct.FT_BBox_, i16, i16, i16, i16, i16, i16, i16, i16, ptr, ptr, ptr, ptr, ptr, ptr, %struct.FT_ListRec_, %struct.FT_Generic_, ptr, ptr }
%struct.FT_BBox_ = type { i64, i64, i64, i64 }
%struct.FT_Generic_ = type { ptr, ptr }
%struct.T1_FontRec_ = type { %struct.PS_FontInfoRec_, %struct.PS_FontExtraRec_, %struct.PS_PrivateRec_, ptr, i32, %struct.T1_EncodingRecRec_, ptr, ptr, ptr, i32, ptr, ptr, ptr, i32, ptr, ptr, ptr, i8, i8, %struct.FT_Matrix_, %struct.FT_Vector_, %struct.FT_BBox_, i64, i64 }
%struct.PS_FontInfoRec_ = type { ptr, ptr, ptr, ptr, ptr, i64, i8, i16, i16 }
%struct.PS_FontExtraRec_ = type { i16 }
%struct.PS_PrivateRec_ = type { i32, i32, i8, i8, i8, i8, [14 x i16], [10 x i16], [14 x i16], [10 x i16], i64, i32, i32, [1 x i16], [1 x i16], i8, i8, i8, i8, [13 x i16], [13 x i16], i64, i64, i64, [2 x i16] }
%struct.T1_EncodingRecRec_ = type { i32, i32, i32, ptr, ptr }
%struct.FT_Matrix_ = type { i64, i64, i64, i64 }
%struct.FT_Vector_ = type { i64, i64 }
%struct.AFM_FontInfoRec_ = type { i8, %struct.FT_BBox_, i64, i64, ptr, i32, ptr, i32 }
%struct.AFM_TrackKernRec_ = type { i32, i64, i64, i64, i64 }

; Function Attrs: nounwind uwtable
define internal i32 @T1_Get_Track_Kerning(ptr noundef %0, i64 noundef %1, i32 noundef %2, ptr noundef %3) #0 {
  %5 = alloca i32, align 4
  %6 = alloca ptr, align 8
  %7 = alloca i64, align 8
  %8 = alloca i32, align 4
  %9 = alloca ptr, align 8
  %10 = alloca ptr, align 8
  %11 = alloca i32, align 4
  %12 = alloca ptr, align 8
  store ptr %0, ptr %6, align 8
  store i64 %1, ptr %7, align 8
  store i32 %2, ptr %8, align 4
  store ptr %3, ptr %9, align 8
  %13 = load ptr, ptr %6, align 8
  %14 = getelementptr inbounds %struct.T1_FaceRec_, ptr %13, i32 0, i32 4
  %15 = load ptr, ptr %14, align 8
  store ptr %15, ptr %10, align 8
  %16 = load ptr, ptr %10, align 8
  %17 = icmp ne ptr %16, null
  br i1 %17, label %19, label %18

18:                                               ; preds = %4
  store i32 6, ptr %5, align 4
  br label %93

19:                                               ; preds = %4
  store i32 0, ptr %11, align 4
  br label %20

20:                                               ; preds = %89, %19
  %21 = load i32, ptr %11, align 4
  %22 = load ptr, ptr %10, align 8
  %23 = getelementptr inbounds %struct.AFM_FontInfoRec_, ptr %22, i32 0, i32 5
  %24 = load i32, ptr %23, align 8
  %25 = icmp ult i32 %21, %24
  br i1 %25, label %26, label %92

26:                                               ; preds = %20
  %27 = load ptr, ptr %10, align 8
  %28 = getelementptr inbounds %struct.AFM_FontInfoRec_, ptr %27, i32 0, i32 4
  %29 = load ptr, ptr %28, align 8
  %30 = load i32, ptr %11, align 4
  %31 = zext i32 %30 to i64
  %32 = getelementptr inbounds %struct.AFM_TrackKernRec_, ptr %29, i64 %31
  store ptr %32, ptr %12, align 8
  %33 = load ptr, ptr %12, align 8
  %34 = getelementptr inbounds %struct.AFM_TrackKernRec_, ptr %33, i32 0, i32 0
  %35 = load i32, ptr %34, align 8
  %36 = load i32, ptr %8, align 4
  %37 = icmp ne i32 %35, %36
  br i1 %37, label %38, label %39

38:                                               ; preds = %26
  br label %89

39:                                               ; preds = %26
  %40 = load i64, ptr %7, align 8
  %41 = load ptr, ptr %12, align 8
  %42 = getelementptr inbounds %struct.AFM_TrackKernRec_, ptr %41, i32 0, i32 1
  %43 = load i64, ptr %42, align 8
  %44 = icmp slt i64 %40, %43
  br i1 %44, label %45, label %50

45:                                               ; preds = %39
  %46 = load ptr, ptr %12, align 8
  %47 = getelementptr inbounds %struct.AFM_TrackKernRec_, ptr %46, i32 0, i32 2
  %48 = load i64, ptr %47, align 8
  %49 = load ptr, ptr %9, align 8
  store i64 %48, ptr %49, align 8
  br label %88

50:                                               ; preds = %39
  %51 = load i64, ptr %7, align 8
  %52 = load ptr, ptr %12, align 8
  %53 = getelementptr inbounds %struct.AFM_TrackKernRec_, ptr %52, i32 0, i32 3
  %54 = load i64, ptr %53, align 8
  %55 = icmp sgt i64 %51, %54
  br i1 %55, label %56, label %61

56:                                               ; preds = %50
  %57 = load ptr, ptr %12, align 8
  %58 = getelementptr inbounds %struct.AFM_TrackKernRec_, ptr %57, i32 0, i32 4
  %59 = load i64, ptr %58, align 8
  %60 = load ptr, ptr %9, align 8
  store i64 %59, ptr %60, align 8
  br label %87

61:                                               ; preds = %50
  %62 = load i64, ptr %7, align 8
  %63 = load ptr, ptr %12, align 8
  %64 = getelementptr inbounds %struct.AFM_TrackKernRec_, ptr %63, i32 0, i32 1
  %65 = load i64, ptr %64, align 8
  %66 = sub nsw i64 %62, %65
  %67 = load ptr, ptr %12, align 8
  %68 = getelementptr inbounds %struct.AFM_TrackKernRec_, ptr %67, i32 0, i32 4
  %69 = load i64, ptr %68, align 8
  %70 = load ptr, ptr %12, align 8
  %71 = getelementptr inbounds %struct.AFM_TrackKernRec_, ptr %70, i32 0, i32 2
  %72 = load i64, ptr %71, align 8
  %73 = sub nsw i64 %69, %72
  %74 = load ptr, ptr %12, align 8
  %75 = getelementptr inbounds %struct.AFM_TrackKernRec_, ptr %74, i32 0, i32 3
  %76 = load i64, ptr %75, align 8
  %77 = load ptr, ptr %12, align 8
  %78 = getelementptr inbounds %struct.AFM_TrackKernRec_, ptr %77, i32 0, i32 1
  %79 = load i64, ptr %78, align 8
  %80 = sub nsw i64 %76, %79
  %81 = call i64 @FT_MulDiv(i64 noundef %66, i64 noundef %73, i64 noundef %80)
  %82 = load ptr, ptr %12, align 8
  %83 = getelementptr inbounds %struct.AFM_TrackKernRec_, ptr %82, i32 0, i32 2
  %84 = load i64, ptr %83, align 8
  %85 = add nsw i64 %81, %84
  %86 = load ptr, ptr %9, align 8
  store i64 %85, ptr %86, align 8
  br label %87

87:                                               ; preds = %61, %56
  br label %88

88:                                               ; preds = %87, %45
  br label %89

89:                                               ; preds = %88, %38
  %90 = load i32, ptr %11, align 4
  %91 = add i32 %90, 1
  store i32 %91, ptr %11, align 4
  br label %20, !llvm.loop !10

92:                                               ; preds = %20
  store i32 0, ptr %5, align 4
  br label %93

93:                                               ; preds = %92, %18
  %94 = load i32, ptr %5, align 4
  ret i32 %94
}