; Function Attrs: nounwind uwtable
define internal range(i32 0, 7) i32 @T1_Get_Track_Kerning(ptr nocapture noundef readonly %0, i64 noundef %1, i32 noundef %2, ptr nocapture noundef writeonly %3) #2 {
  %5 = getelementptr inbounds i8, ptr %0, i64 792
  %6 = load ptr, ptr %5, align 8
  %.not = icmp eq ptr %6, null
  br i1 %.not, label %.loopexit, label %.preheader

.preheader:                                       ; preds = %4
  %7 = getelementptr inbounds i8, ptr %6, i64 64
  %8 = load i32, ptr %7, align 8
  %.not32 = icmp eq i32 %8, 0
  br i1 %.not32, label %.loopexit, label %.lr.ph

.lr.ph:                                           ; preds = %.preheader
  %9 = getelementptr inbounds i8, ptr %6, i64 56
  br label %10

10:                                               ; preds = %.lr.ph, %39
  %indvars.iv = phi i64 [ 0, %.lr.ph ], [ %indvars.iv.next, %39 ]
  %11 = load ptr, ptr %9, align 8
  %12 = getelementptr inbounds %struct.AFM_TrackKernRec_, ptr %11, i64 %indvars.iv
  %13 = load i32, ptr %12, align 8
  %.not30 = icmp eq i32 %13, %2
  br i1 %.not30, label %14, label %39

14:                                               ; preds = %10
  %15 = getelementptr inbounds i8, ptr %12, i64 8
  %16 = load i64, ptr %15, align 8
  %17 = icmp sgt i64 %16, %1
  br i1 %17, label %18, label %21

18:                                               ; preds = %14
  %19 = getelementptr inbounds i8, ptr %12, i64 16
  %20 = load i64, ptr %19, align 8
  br label %.sink.split

21:                                               ; preds = %14
  %22 = getelementptr inbounds i8, ptr %12, i64 24
  %23 = load i64, ptr %22, align 8
  %24 = icmp slt i64 %23, %1
  br i1 %24, label %25, label %28

25:                                               ; preds = %21
  %26 = getelementptr inbounds i8, ptr %12, i64 32
  %27 = load i64, ptr %26, align 8
  br label %.sink.split

28:                                               ; preds = %21
  %29 = sub nsw i64 %1, %16
  %30 = getelementptr inbounds i8, ptr %12, i64 32
  %31 = load i64, ptr %30, align 8
  %32 = getelementptr inbounds i8, ptr %12, i64 16
  %33 = load i64, ptr %32, align 8
  %34 = sub nsw i64 %31, %33
  %35 = sub nsw i64 %23, %16
  %36 = tail call i64 @FT_MulDiv(i64 noundef %29, i64 noundef %34, i64 noundef %35) #16
  %37 = load i64, ptr %32, align 8
  %38 = add nsw i64 %37, %36
  br label %.sink.split

.sink.split:                                      ; preds = %25, %28, %18
  %.sink = phi i64 [ %20, %18 ], [ %38, %28 ], [ %27, %25 ]
  store i64 %.sink, ptr %3, align 8
  br label %39

39:                                               ; preds = %.sink.split, %10
  %indvars.iv.next = add nuw nsw i64 %indvars.iv, 1
  %40 = load i32, ptr %7, align 8
  %41 = zext i32 %40 to i64
  %42 = icmp ult i64 %indvars.iv.next, %41
  br i1 %42, label %10, label %.loopexit, !llvm.loop !16

.loopexit:                                        ; preds = %39, %.preheader, %4
  %.0 = phi i32 [ 6, %4 ], [ 0, %.preheader ], [ 0, %39 ]
  ret i32 %.0
}